; Function Attrs: mustprogress nounwind uwtable
define internal fastcc void @_ZN12_GLOBAL__N_128CloneTypeIIStmtDataCollectorIN4llvm3MD5EE14VisitLabelStmtIvEEvPKN5clang9LabelStmtE(ptr noundef nonnull readonly align 8 captures(none) dereferenceable(16) %0, ptr noundef %1) unnamed_addr #1 align 2 {
  %3 = getelementptr inbounds nuw i8, ptr %1, i64 8
  %4 = load ptr, ptr %3, align 8
  %5 = getelementptr inbounds nuw i8, ptr %4, i64 40
  %6 = load i64, ptr %5, align 8
  %7 = and i64 %6, 7
  %8 = icmp ne i64 %7, 0
  %9 = and i64 %6, -8
  %.not2.i = icmp eq i64 %9, 0
  %.not.i = or i1 %8, %.not2.i
  br i1 %.not.i, label %_ZNK5clang9NamedDecl7getNameEv.exit, label %10

10:                                               ; preds = %2
  %11 = inttoptr i64 %9 to ptr
  %12 = getelementptr inbounds nuw i8, ptr %11, i64 16
  %13 = load ptr, ptr %12, align 8
  %14 = getelementptr inbounds nuw i8, ptr %13, i64 16
  %15 = load i64, ptr %13, align 8
  %16 = and i64 %15, 4294967295
  br label %_ZNK5clang9NamedDecl7getNameEv.exit

_ZNK5clang9NamedDecl7getNameEv.exit:              ; preds = %2, %10
  %.sroa.3.0.i = phi i64 [ %16, %10 ], [ 0, %2 ]
  %.sroa.0.0.i = phi ptr [ %14, %10 ], [ @.str, %2 ]
  %17 = getelementptr inbounds nuw i8, ptr %0, i64 8
  %.val = load ptr, ptr %17, align 8
  tail call void @_ZN4llvm3MD56updateENS_9StringRefE(ptr noundef nonnull align 4 dereferenceable(152) %.val, ptr nonnull %.sroa.0.0.i, i64 %.sroa.3.0.i) #21
  tail call fastcc void @_ZN12_GLOBAL__N_128CloneTypeIIStmtDataCollectorIN4llvm3MD5EE9VisitStmtIvEEvPKN5clang4StmtE(ptr noundef nonnull readonly align 8 dereferenceable(16) %0, ptr noundef nonnull %1)
  ret void
}